; Function Attrs: mustprogress uwtable
define noundef nonnull align 8 dereferenceable(24) ptr @_ZN7rocksdb21GetSupportedChecksumsEv() local_unnamed_addr #1 personality ptr @__gxx_personality_v0 {
  %1 = load atomic i8, ptr @_ZGVZN7rocksdb21GetSupportedChecksumsEvE19supported_checksums acquire, align 8
  %2 = icmp eq i8 %1, 0
  br i1 %2, label %3, label %8, !prof !586

3:                                                ; preds = %0
  %4 = tail call i32 @__cxa_guard_acquire(ptr nonnull @_ZGVZN7rocksdb21GetSupportedChecksumsEvE19supported_checksums) #27
  %.not = icmp eq i32 %4, 0
  br i1 %.not, label %8, label %5

5:                                                ; preds = %3
  invoke fastcc void @"_ZZN7rocksdb21GetSupportedChecksumsEvENK3$_0clEv"()
          to label %6 unwind label %9

6:                                                ; preds = %5
  %7 = tail call i32 @__cxa_atexit(ptr nonnull @_ZNSt6vectorIN7rocksdb12ChecksumTypeESaIS1_EED2Ev, ptr nonnull @_ZZN7rocksdb21GetSupportedChecksumsEvE19supported_checksums, ptr nonnull @__dso_handle) #27
  tail call void @__cxa_guard_release(ptr nonnull @_ZGVZN7rocksdb21GetSupportedChecksumsEvE19supported_checksums) #27
  br label %8

8:                                                ; preds = %6, %3, %0
  ret ptr @_ZZN7rocksdb21GetSupportedChecksumsEvE19supported_checksums

9:                                                ; preds = %5
  %10 = landingpad { ptr, i32 }
          cleanup
  tail call void @__cxa_guard_abort(ptr nonnull @_ZGVZN7rocksdb21GetSupportedChecksumsEvE19supported_checksums) #27
  resume { ptr, i32 } %10
}